; Function Attrs: nounwind uwtable
define noundef ptr @ggml_rms_norm(ptr noundef captures(none) %0, ptr noundef %1, float noundef %2) local_unnamed_addr #4 {
  %4 = load i32, ptr %1, align 8, !tbaa !40
  %5 = getelementptr inbounds nuw i8, ptr %1, i64 16
  %6 = tail call fastcc noundef ptr @ggml_new_tensor_impl(ptr noundef %0, i32 noundef %4, i32 noundef 4, ptr noundef nonnull readonly %5, ptr noundef null, i64 noundef 0)
  %.not.i.i = icmp eq ptr %6, null
  br i1 %.not.i.i, label %7, label %ggml_rms_norm_impl.exit

7:                                                ; preds = %3
  tail call void (ptr, i32, ptr, ...) @ggml_abort(ptr noundef nonnull @.str.463, i32 noundef 112, ptr noundef nonnull @.str.13, ptr noundef nonnull @.str.464) #47
  unreachable

ggml_rms_norm_impl.exit:                          ; preds = %3
  %8 = getelementptr inbounds nuw i8, ptr %6, i64 84
  store float %2, ptr %8, align 4
  %9 = getelementptr inbounds nuw i8, ptr %6, i64 80
  store i32 23, ptr %9, align 8, !tbaa !55
  %10 = getelementptr inbounds nuw i8, ptr %6, i64 152
  store ptr %1, ptr %10, align 8, !tbaa !81
  ret ptr %6
}